(dp1
S'output'
p2
S"<type 'exceptions.AttributeError'> 'NoneType' object has no attribute 'split'"
p3
sS'layer'
p4
S'/home/aysedlk/Masa\xc3\xbcst\xc3\xbc/web2py/applications/storiesss/controllers/default.py'
p5
sS'code'
p6
S'# -*- coding: utf-8 -*-\n# this file is released under public domain and you can use without limitations\n\n#########################################################################\n## This is a sample controller\n## - index is the default action of any application\n## - user is required for authentication and authorization\n## - download is for downloading files uploaded in the db (does streaming)\n#########################################################################\n\ndef index():\n    return locals()\n    \n\ndef search():\n    import urllib\n    import json\n    search_query = request.vars.searchQuery.replace(\' \', \'+\')\n    if not request.vars.prevQuery:\n        request.vars.prevQuery = request.vars.searchQuery\n    if request.vars.prevQuery != request.vars.searchQuery:\n        search_query = request.vars.prevQuery + "+AND+" + search_query\n    page = request.args(0, cast=int) or 0\n    category = request.vars.category or "*"\n    date = request.vars.date.split(\',\')[1] or "*"\n    #search_result_url = "http://localhost:8983/solr/stories/select?q=category%3A{}+AND+{}&start={}&wt=json&indent=true&facet=true&facet.field=category".format(category, search_query, (page-1)*10)\n    search_result_url = "http://localhost:8983/solr/stories/select?q=category:{0}+AND+date:{3}+AND+{1}&start={2}&wt=json&indent=true&facet=true&facet.field=category".format(category, search_query, (page-1)*10, date)\n    search_response = urllib.urlopen(search_result_url)\n    search_result = json.loads(search_response.read())\n    return locals()\n\n\ndef show_detail():\n    import urllib\n    import json\n    id = request.args(0)\n    search_result_url = "http://localhost:8983/solr/stories/select?q={0}&df=id&wt=json&indent=true&facet=true".format(id)\n    search_response = urllib.urlopen(search_result_url)\n    search_result = json.loads(search_response.read())\n    return locals()\n\ndef user():\n    """\n    exposes:\n    http://..../[app]/default/user/login\n    http://..../[app]/default/user/logout\n    http://..../[app]/default/user/register\n    http://..../[app]/default/user/profile\n    http://..../[app]/default/user/retrieve_password\n    http://..../[app]/default/user/change_password\n    http://..../[app]/default/user/bulk_register\n    use @auth.requires_login()\n        @auth.requires_membership(\'group name\')\n        @auth.requires_permission(\'read\',\'table name\',record_id)\n    to decorate functions that need access control\n    also notice there is http://..../[app]/appadmin/manage/auth to allow administrator to manage users\n    """\n    return dict(form=auth())\n\n\n@cache.action()\ndef download():\n    """\n    allows downloading of uploaded files\n    http://..../[app]/default/download/[filename]\n    """\n    return response.download(request, db)\n\n\ndef call():\n    """\n    exposes services. for example:\n    http://..../[app]/default/call/jsonrpc\n    decorate with @services.jsonrpc the functions to expose\n    supports xml, json, xmlrpc, jsonrpc, amfrpc, rss, csv\n    """\n    return service()\n\n\n\n\nresponse._vars=response._caller(search)\n'
p7
sS'snapshot'
p8
(dp9
sS'traceback'
p10
S'Traceback (most recent call last):\n  File "/home/aysedlk/Masa\xc3\xbcst\xc3\xbc/web2py/gluon/restricted.py", line 227, in restricted\n    exec ccode in environment\n  File "/home/aysedlk/Masa\xc3\xbcst\xc3\xbc/web2py/applications/storiesss/controllers/default.py", line 82, in <module>\n  File "/home/aysedlk/Masa\xc3\xbcst\xc3\xbc/web2py/gluon/globals.py", line 412, in <lambda>\n    self._caller = lambda f: f()\n  File "/home/aysedlk/Masa\xc3\xbcst\xc3\xbc/web2py/applications/storiesss/controllers/default.py", line 25, in search\n    date = request.vars.date.split(\',\')[1] or "*"\nAttributeError: \'NoneType\' object has no attribute \'split\'\n'
p11
s.